target datalayout = "e-m:e-p270:32:32-p271:32:32-p272:64:64-i64:64-i128:128-f80:128-n8:16:32:64-S128"
target triple = "x86_64-pc-linux-gnu"

%struct.If_DsdMan_t_ = type { ptr, i32, i32, i32, i32, ptr, ptr, %struct.Vec_Ptr_t_, %struct.Vec_Int_t_, %struct.Vec_Int_t_, ptr, ptr, ptr, [16 x ptr], [16 x ptr], [16 x ptr], [16 x ptr], i32, i32, ptr, ptr, ptr, ptr, ptr, i32, i32, i32, i32, i64, i64, i64, i64, i64 }
%struct.Vec_Ptr_t_ = type { i32, i32, ptr }
%struct.Vec_Int_t_ = type { i32, i32, ptr }

; Function Attrs: inlinehint nounwind uwtable
define internal i32 @Vec_PtrSize(ptr noundef %0) #1 {
  %2 = alloca ptr, align 8
  store ptr %0, ptr %2, align 8, !tbaa !22
  %3 = load ptr, ptr %2, align 8, !tbaa !22
  %4 = getelementptr inbounds nuw %struct.Vec_Ptr_t_, ptr %3, i32 0, i32 1
  %5 = load i32, ptr %4, align 4, !tbaa !24
  ret i32 %5
}

; Function Attrs: nounwind uwtable
define i32 @If_DsdManObjNum(ptr noundef %0) #0 {
  %2 = alloca ptr, align 8
  store ptr %0, ptr %2, align 8, !tbaa !3
  %3 = load ptr, ptr %2, align 8, !tbaa !3
  %4 = getelementptr inbounds nuw %struct.If_DsdMan_t_, ptr %3, i32 0, i32 7
  %5 = call i32 @Vec_PtrSize(ptr noundef %4)
  ret i32 %5
}

; Function Attrs: nounwind uwtable
define void @If_DsdManSetNewAsUseless(ptr noundef %0) #0 {
  %2 = alloca ptr, align 8
  store ptr %0, ptr %2, align 8, !tbaa !3
  %3 = load ptr, ptr %2, align 8, !tbaa !3
  %4 = getelementptr inbounds nuw %struct.If_DsdMan_t_, ptr %3, i32 0, i32 24
  %5 = load i32, ptr %4, align 8, !tbaa !30
  %6 = icmp eq i32 %5, 0
  br i1 %6, label %7, label %12

7:                                                ; preds = %1
  %8 = load ptr, ptr %2, align 8, !tbaa !3
  %9 = call i32 @If_DsdManObjNum(ptr noundef %8)
  %10 = load ptr, ptr %2, align 8, !tbaa !3
  %11 = getelementptr inbounds nuw %struct.If_DsdMan_t_, ptr %10, i32 0, i32 24
  store i32 %9, ptr %11, align 8, !tbaa !30
  br label %12

12:                                               ; preds = %7, %1
  %13 = load ptr, ptr %2, align 8, !tbaa !3
  %14 = getelementptr inbounds nuw %struct.If_DsdMan_t_, ptr %13, i32 0, i32 25
  store i32 1, ptr %14, align 4, !tbaa !31
  ret void
}