; Function Attrs: mustprogress nofree norecurse nosync nounwind willreturn memory(argmem: readwrite) uwtable
define void @If_DsdManSetNewAsUseless(ptr noundef captures(none) initializes((676, 680)) %0) local_unnamed_addr #3 {
  %2 = getelementptr inbounds nuw i8, ptr %0, i64 672
  %3 = load i32, ptr %2, align 8, !tbaa !25
  %4 = icmp eq i32 %3, 0
  br i1 %4, label %5, label %7

5:                                                ; preds = %1
  %6 = getelementptr i8, ptr %0, i64 44
  %.val.i = load i32, ptr %6, align 4, !tbaa !20
  store i32 %.val.i, ptr %2, align 8, !tbaa !25
  br label %7

7:                                                ; preds = %5, %1
  %8 = getelementptr inbounds nuw i8, ptr %0, i64 676
  store i32 1, ptr %8, align 4, !tbaa !26
  ret void
}